target datalayout = "e-m:e-p270:32:32-p271:32:32-p272:64:64-i64:64-i128:128-f80:128-n8:16:32:64-S128"
target triple = "x86_64-pc-linux-gnu"

; Function Attrs: mustprogress uwtable
define noundef zeroext i1 @_ZNK5osgeo4proj16GenericShiftGrid8valuesAtEiiiiiPKiPfRb(ptr noundef nonnull align 8 dereferenceable(144) %0, i32 noundef %1, i32 noundef %2, i32 noundef %3, i32 noundef %4, i32 noundef %5, ptr noundef %6, ptr noundef %7, ptr noundef nonnull align 1 dereferenceable(1) %8) unnamed_addr #1 align 2 {
  %10 = alloca i1, align 1
  %11 = alloca ptr, align 8
  %12 = alloca i32, align 4
  %13 = alloca i32, align 4
  %14 = alloca i32, align 4
  %15 = alloca i32, align 4
  %16 = alloca i32, align 4
  %17 = alloca ptr, align 8
  %18 = alloca ptr, align 8
  %19 = alloca ptr, align 8
  %20 = alloca i32, align 4
  %21 = alloca i32, align 4
  %22 = alloca i32, align 4
  %23 = alloca i32, align 4
  store ptr %0, ptr %11, align 8, !tbaa !434
  store i32 %1, ptr %12, align 4, !tbaa !26
  store i32 %2, ptr %13, align 4, !tbaa !26
  store i32 %3, ptr %14, align 4, !tbaa !26
  store i32 %4, ptr %15, align 4, !tbaa !26
  store i32 %5, ptr %16, align 4, !tbaa !26
  store ptr %6, ptr %17, align 8, !tbaa !90
  store ptr %7, ptr %18, align 8, !tbaa !50
  store ptr %8, ptr %19, align 8, !tbaa !198
  %24 = load ptr, ptr %11, align 8
  %25 = load ptr, ptr %19, align 8, !tbaa !198
  store i8 0, ptr %25, align 1, !tbaa !38
  call void @llvm.lifetime.start.p0(i64 4, ptr %20) #6
  %26 = load i32, ptr %13, align 4, !tbaa !26
  store i32 %26, ptr %20, align 4, !tbaa !26
  br label %27

27:                                               ; preds = %78, %9
  %28 = load i32, ptr %20, align 4, !tbaa !26
  %29 = load i32, ptr %13, align 4, !tbaa !26
  %30 = load i32, ptr %15, align 4, !tbaa !26
  %31 = add nsw i32 %29, %30
  %32 = icmp slt i32 %28, %31
  br i1 %32, label %34, label %33

33:                                               ; preds = %27
  store i32 2, ptr %21, align 4
  br label %81

34:                                               ; preds = %27
  call void @llvm.lifetime.start.p0(i64 4, ptr %22) #6
  %35 = load i32, ptr %12, align 4, !tbaa !26
  store i32 %35, ptr %22, align 4, !tbaa !26
  br label %36

36:                                               ; preds = %72, %34
  %37 = load i32, ptr %22, align 4, !tbaa !26
  %38 = load i32, ptr %12, align 4, !tbaa !26
  %39 = load i32, ptr %14, align 4, !tbaa !26
  %40 = add nsw i32 %38, %39
  %41 = icmp slt i32 %37, %40
  br i1 %41, label %43, label %42

42:                                               ; preds = %36
  store i32 5, ptr %21, align 4
  br label %75

43:                                               ; preds = %36
  call void @llvm.lifetime.start.p0(i64 4, ptr %23) #6
  store i32 0, ptr %23, align 4, !tbaa !26
  br label %44

44:                                               ; preds = %66, %43
  %45 = load i32, ptr %23, align 4, !tbaa !26
  %46 = load i32, ptr %16, align 4, !tbaa !26
  %47 = icmp slt i32 %45, %46
  br i1 %47, label %49, label %48

48:                                               ; preds = %44
  store i32 8, ptr %21, align 4
  br label %69

49:                                               ; preds = %44
  %50 = load i32, ptr %22, align 4, !tbaa !26
  %51 = load i32, ptr %20, align 4, !tbaa !26
  %52 = load ptr, ptr %17, align 8, !tbaa !90
  %53 = load i32, ptr %23, align 4, !tbaa !26
  %54 = sext i32 %53 to i64
  %55 = getelementptr inbounds i32, ptr %52, i64 %54
  %56 = load i32, ptr %55, align 4, !tbaa !26
  %57 = load ptr, ptr %18, align 8, !tbaa !50
  %58 = load ptr, ptr %24, align 8, !tbaa !28
  %59 = getelementptr inbounds ptr, ptr %58, i64 9
  %60 = load ptr, ptr %59, align 8
  %61 = call noundef zeroext i1 %60(ptr noundef nonnull align 8 dereferenceable(144) %24, i32 noundef %50, i32 noundef %51, i32 noundef %56, ptr noundef nonnull align 4 dereferenceable(4) %57)
  br i1 %61, label %63, label %62

62:                                               ; preds = %49
  store i1 false, ptr %10, align 1
  store i32 1, ptr %21, align 4
  br label %69

63:                                               ; preds = %49
  %64 = load ptr, ptr %18, align 8, !tbaa !50
  %65 = getelementptr inbounds nuw float, ptr %64, i32 1
  store ptr %65, ptr %18, align 8, !tbaa !50
  br label %66

66:                                               ; preds = %63
  %67 = load i32, ptr %23, align 4, !tbaa !26
  %68 = add nsw i32 %67, 1
  store i32 %68, ptr %23, align 4, !tbaa !26
  br label %44, !llvm.loop !460

69:                                               ; preds = %62, %48
  call void @llvm.lifetime.end.p0(i64 4, ptr %23) #6
  %70 = load i32, ptr %21, align 4
  switch i32 %70, label %75 [
    i32 8, label %71
  ]

71:                                               ; preds = %69
  br label %72

72:                                               ; preds = %71
  %73 = load i32, ptr %22, align 4, !tbaa !26
  %74 = add nsw i32 %73, 1
  store i32 %74, ptr %22, align 4, !tbaa !26
  br label %36, !llvm.loop !461

75:                                               ; preds = %69, %42
  call void @llvm.lifetime.end.p0(i64 4, ptr %22) #6
  %76 = load i32, ptr %21, align 4
  switch i32 %76, label %81 [
    i32 5, label %77
  ]

77:                                               ; preds = %75
  br label %78

78:                                               ; preds = %77
  %79 = load i32, ptr %20, align 4, !tbaa !26
  %80 = add nsw i32 %79, 1
  store i32 %80, ptr %20, align 4, !tbaa !26
  br label %27, !llvm.loop !462

81:                                               ; preds = %75, %33
  call void @llvm.lifetime.end.p0(i64 4, ptr %20) #6
  %82 = load i32, ptr %21, align 4
  switch i32 %82, label %86 [
    i32 2, label %83
    i32 1, label %84
  ]

83:                                               ; preds = %81
  store i1 true, ptr %10, align 1
  br label %84

84:                                               ; preds = %83, %81
  %85 = load i1, ptr %10, align 1
  ret i1 %85

86:                                               ; preds = %81
  unreachable
}