; Function Attrs: mustprogress uwtable
define noundef zeroext i1 @_ZNK5osgeo4proj16GenericShiftGrid8valuesAtEiiiiiPKiPfRb(ptr noundef nonnull align 8 dereferenceable(144) %0, i32 noundef %1, i32 noundef %2, i32 noundef %3, i32 noundef %4, i32 noundef %5, ptr noundef readonly captures(none) %6, ptr noundef %7, ptr noundef nonnull writeonly align 1 captures(none) dereferenceable(1) initializes((0, 1)) %8) unnamed_addr #2 align 2 {
  store i8 0, ptr %8, align 1, !tbaa !36
  %10 = add nsw i32 %4, %2
  %11 = icmp slt i32 %4, 1
  br i1 %11, label %.loopexit, label %.preheader41.lr.ph

.preheader41.lr.ph:                               ; preds = %9
  %12 = add nsw i32 %3, %1
  %13 = icmp sgt i32 %3, 0
  %.not46 = icmp sgt i32 %5, 0
  %or.cond = and i1 %13, %.not46
  br i1 %or.cond, label %.preheader41.us.us.preheader, label %.loopexit

.preheader41.us.us.preheader:                     ; preds = %.preheader41.lr.ph
  %wide.trip.count = zext nneg i32 %5 to i64
  br label %.preheader41.us.us

.preheader41.us.us:                               ; preds = %.preheader41.us.us.preheader, %._crit_edge51.split.us.us.us
  %.02755.us.us = phi i32 [ %25, %._crit_edge51.split.us.us.us ], [ %2, %.preheader41.us.us.preheader ]
  %.03154.us.us = phi ptr [ %22, %._crit_edge51.split.us.us.us ], [ %7, %.preheader41.us.us.preheader ]
  br label %.preheader.us.us.us

.preheader.us.us.us:                              ; preds = %._crit_edge.us.us.us, %.preheader41.us.us
  %.02550.us.us.us = phi i32 [ %1, %.preheader41.us.us ], [ %23, %._crit_edge.us.us.us ]
  %.13249.us.us.us = phi ptr [ %.03154.us.us, %.preheader41.us.us ], [ %22, %._crit_edge.us.us.us ]
  br label %14

14:                                               ; preds = %21, %.preheader.us.us.us
  %indvars.iv = phi i64 [ %indvars.iv.next, %21 ], [ 0, %.preheader.us.us.us ]
  %.33447.us.us.us = phi ptr [ %22, %21 ], [ %.13249.us.us.us, %.preheader.us.us.us ]
  %15 = getelementptr inbounds nuw i32, ptr %6, i64 %indvars.iv
  %16 = load i32, ptr %15, align 4, !tbaa !212
  %17 = load ptr, ptr %0, align 8, !tbaa !19
  %18 = getelementptr inbounds nuw i8, ptr %17, i64 72
  %19 = load ptr, ptr %18, align 8
  %20 = tail call noundef zeroext i1 %19(ptr noundef nonnull align 8 dereferenceable(144) %0, i32 noundef %.02550.us.us.us, i32 noundef %.02755.us.us, i32 noundef %16, ptr noundef nonnull align 4 dereferenceable(4) %.33447.us.us.us)
  br i1 %20, label %21, label %.loopexit

21:                                               ; preds = %14
  %22 = getelementptr inbounds nuw i8, ptr %.33447.us.us.us, i64 4
  %indvars.iv.next = add nuw nsw i64 %indvars.iv, 1
  %exitcond.not = icmp eq i64 %indvars.iv.next, %wide.trip.count
  br i1 %exitcond.not, label %._crit_edge.us.us.us, label %14, !llvm.loop !428

._crit_edge.us.us.us:                             ; preds = %21
  %23 = add nsw i32 %.02550.us.us.us, 1
  %24 = icmp slt i32 %23, %12
  br i1 %24, label %.preheader.us.us.us, label %._crit_edge51.split.us.us.us, !llvm.loop !429

._crit_edge51.split.us.us.us:                     ; preds = %._crit_edge.us.us.us
  %25 = add nsw i32 %.02755.us.us, 1
  %.not66 = icmp slt i32 %25, %10
  br i1 %.not66, label %.preheader41.us.us, label %.loopexit, !llvm.loop !430

.loopexit:                                        ; preds = %._crit_edge51.split.us.us.us, %14, %.preheader41.lr.ph, %9
  %26 = phi i1 [ true, %9 ], [ true, %.preheader41.lr.ph ], [ false, %14 ], [ true, %._crit_edge51.split.us.us.us ]
  ret i1 %26
}